target datalayout = "e-m:e-p270:32:32-p271:32:32-p272:64:64-i64:64-i128:128-f80:128-n8:16:32:64-S128"
target triple = "x86_64-pc-linux-gnu"

%struct.noisy_dgram_st = type { i64, %struct.bio_msg_st, i64, i32, i32, %struct.bw_limiter_st, %struct.bw_limiter_st, ptr, ptr }
%struct.bio_msg_st = type { ptr, i64, ptr, ptr, i64 }
%struct.bw_limiter_st = type { [1024 x %struct.pkt_info_st], i64, i64, i64, i64 }
%struct.pkt_info_st = type { i64, %struct.OSSL_TIME }
%struct.OSSL_TIME = type { i64 }

@.str.1 = private unnamed_addr constant [40 x i8] c"../openssl/test/helpers/noisydgrambio.c\00", align 1

; Function Attrs: nounwind uwtable
define internal void @data_free(ptr noundef %0) #0 {
  %2 = alloca ptr, align 8
  store ptr %0, ptr %2, align 8, !tbaa !16
  %3 = load ptr, ptr %2, align 8, !tbaa !16
  %4 = icmp eq ptr %3, null
  br i1 %4, label %5, label %6

5:                                                ; preds = %1
  br label %20

6:                                                ; preds = %1
  %7 = load ptr, ptr %2, align 8, !tbaa !16
  %8 = getelementptr inbounds nuw %struct.noisy_dgram_st, ptr %7, i32 0, i32 1
  %9 = getelementptr inbounds nuw %struct.bio_msg_st, ptr %8, i32 0, i32 0
  %10 = load ptr, ptr %9, align 8, !tbaa !50
  call void @CRYPTO_free(ptr noundef %10, ptr noundef @.str.1, i32 noundef 477)
  %11 = load ptr, ptr %2, align 8, !tbaa !16
  %12 = getelementptr inbounds nuw %struct.noisy_dgram_st, ptr %11, i32 0, i32 1
  %13 = getelementptr inbounds nuw %struct.bio_msg_st, ptr %12, i32 0, i32 2
  %14 = load ptr, ptr %13, align 8, !tbaa !51
  call void @BIO_ADDR_free(ptr noundef %14)
  %15 = load ptr, ptr %2, align 8, !tbaa !16
  %16 = getelementptr inbounds nuw %struct.noisy_dgram_st, ptr %15, i32 0, i32 1
  %17 = getelementptr inbounds nuw %struct.bio_msg_st, ptr %16, i32 0, i32 3
  %18 = load ptr, ptr %17, align 8, !tbaa !52
  call void @BIO_ADDR_free(ptr noundef %18)
  %19 = load ptr, ptr %2, align 8, !tbaa !16
  call void @CRYPTO_free(ptr noundef %19, ptr noundef @.str.1, i32 noundef 480)
  br label %20

20:                                               ; preds = %6, %5
  ret void
}

; Function Attrs: nounwind uwtable
define internal i32 @noisy_dgram_free(ptr noundef %0) #0 {
  %2 = alloca ptr, align 8
  store ptr %0, ptr %2, align 8, !tbaa !9
  %3 = load ptr, ptr %2, align 8, !tbaa !9
  %4 = call ptr @BIO_get_data(ptr noundef %3)
  call void @data_free(ptr noundef %4)
  %5 = load ptr, ptr %2, align 8, !tbaa !9
  call void @BIO_set_data(ptr noundef %5, ptr noundef null)
  %6 = load ptr, ptr %2, align 8, !tbaa !9
  call void @BIO_set_init(ptr noundef %6, i32 noundef 0)
  ret i32 1
}