; Function Attrs: nounwind uwtable
define internal noundef i32 @noisy_dgram_free(ptr noundef %0) #0 {
  %2 = tail call ptr @BIO_get_data(ptr noundef %0) #3
  %3 = icmp eq ptr %2, null
  br i1 %3, label %data_free.exit, label %4

4:                                                ; preds = %1
  %5 = getelementptr inbounds nuw i8, ptr %2, i64 8
  %6 = load ptr, ptr %5, align 8, !tbaa !44
  tail call void @CRYPTO_free(ptr noundef %6, ptr noundef nonnull @.str.1, i32 noundef 477) #3
  %7 = getelementptr inbounds nuw i8, ptr %2, i64 24
  %8 = load ptr, ptr %7, align 8, !tbaa !45
  tail call void @BIO_ADDR_free(ptr noundef %8) #3
  %9 = getelementptr inbounds nuw i8, ptr %2, i64 32
  %10 = load ptr, ptr %9, align 8, !tbaa !46
  tail call void @BIO_ADDR_free(ptr noundef %10) #3
  tail call void @CRYPTO_free(ptr noundef nonnull %2, ptr noundef nonnull @.str.1, i32 noundef 480) #3
  br label %data_free.exit

data_free.exit:                                   ; preds = %1, %4
  tail call void @BIO_set_data(ptr noundef %0, ptr noundef null) #3
  tail call void @BIO_set_init(ptr noundef %0, i32 noundef 0) #3
  ret i32 1
}